	.file	"main.c"
__SP_H__ = 0x3e
__SP_L__ = 0x3d
__SREG__ = 0x3f
__RAMPZ__ = 0x3b
__CCP__ = 0x34
__tmp_reg__ = 0
__zero_reg__ = 1
	.text
.Ltext0:
	.cfi_sections	.debug_frame
	.file 0 "/home/penguin/Code/projects/ese381/review/lab6" "main.c"
.global	init_twi0_SerLCD
	.type	init_twi0_SerLCD, @function
init_twi0_SerLCD:
.LFB5:
	.file 1 "main.c"
	.loc 1 27 1 view -0
	.cfi_startproc
/* prologue: function */
/* frame size = 0 */
/* stack size = 0 */
.L__stack_usage = 0
	.loc 1 32 4 view .LVU1
	.loc 1 32 15 is_stmt 0 view .LVU2
	ldi r30,0
	ldi r31,lo8(9)
	ldi r24,lo8(20)
	st Z,r24
	.loc 1 39 4 is_stmt 1 view .LVU3
	.loc 1 39 15 is_stmt 0 view .LVU4
	ldi r24,lo8(1)
	std Z+6,r24
	.loc 1 43 4 is_stmt 1 view .LVU5
	.loc 1 43 16 is_stmt 0 view .LVU6
	std Z+3,r24
	.loc 1 46 4 is_stmt 1 view .LVU7
	.loc 1 46 17 is_stmt 0 view .LVU8
	std Z+5,r24
/* epilogue start */
	.loc 1 47 1 view .LVU9
	ret
	.cfi_endproc
.LFE5:
	.size	init_twi0_SerLCD, .-init_twi0_SerLCD
.global	write_twi0_SerLCD
	.type	write_twi0_SerLCD, @function
write_twi0_SerLCD:
.LVL0:
.LFB6:
	.loc 1 50 1 is_stmt 1 view -0
	.cfi_startproc
/* prologue: function */
/* frame size = 0 */
/* stack size = 0 */
.L__stack_usage = 0
	.loc 1 68 4 view .LVU11
	.loc 1 68 28 is_stmt 0 view .LVU12
	lsl r24
.LVL1:
	.loc 1 68 15 view .LVU13
	sts 2311,r24
	.loc 1 72 5 is_stmt 1 view .LVU14
.L3:
	.loc 1 72 41 discriminator 1 view .LVU15
	.loc 1 72 12 discriminator 1 view .LVU16
	.loc 1 72 17 is_stmt 0 discriminator 1 view .LVU17
	lds r24,2309
	.loc 1 72 12 discriminator 1 view .LVU18
	sbrs r24,6
	rjmp .L3
	.loc 1 84 5 is_stmt 1 view .LVU19
	.loc 1 84 12 is_stmt 0 view .LVU20
	lds r24,2309
	.loc 1 84 8 view .LVU21
	sbrc r24,4
	rjmp .L6
	.loc 1 90 4 is_stmt 1 view .LVU22
	.loc 1 90 15 is_stmt 0 view .LVU23
	sts 2312,r22
	.loc 1 93 5 is_stmt 1 view .LVU24
.L5:
	.loc 1 93 41 discriminator 1 view .LVU25
	.loc 1 93 12 discriminator 1 view .LVU26
	.loc 1 93 17 is_stmt 0 discriminator 1 view .LVU27
	lds r24,2309
	.loc 1 93 12 discriminator 1 view .LVU28
	sbrs r24,6
	rjmp .L5
	.loc 1 96 5 is_stmt 1 view .LVU29
	.loc 1 96 12 is_stmt 0 view .LVU30
	lds r24,2309
	.loc 1 96 8 view .LVU31
	sbrc r24,4
	rjmp .L7
	.loc 1 102 4 is_stmt 1 view .LVU32
	.loc 1 102 8 is_stmt 0 view .LVU33
	ldi r30,0
	ldi r31,lo8(9)
	ldd r24,Z+4
	.loc 1 102 16 view .LVU34
	ori r24,lo8(3)
	std Z+4,r24
	.loc 1 105 5 is_stmt 1 view .LVU35
.LVL2:
.LBB10:
.LBI10:
	.file 2 "/usr/avr/include/util/delay.h"
	.loc 2 154 1 view .LVU36
.LBB11:
	.loc 2 156 2 view .LVU37
	.loc 2 159 2 view .LVU38
	.loc 2 160 2 view .LVU39
	.loc 2 161 2 view .LVU40
	.loc 2 171 3 view .LVU41
	.loc 2 174 2 view .LVU42
	ldi r24,lo8(999)
	ldi r25,hi8(999)
1:	sbiw r24,1
	brne 1b
	rjmp .
	nop
.LVL3:
	.loc 2 174 2 is_stmt 0 view .LVU43
.LBE11:
.LBE10:
	.loc 1 106 5 is_stmt 1 view .LVU44
	.loc 1 106 12 is_stmt 0 view .LVU45
	ldi r24,0
	ldi r25,0
	ret
.L6:
	.loc 1 86 16 view .LVU46
	ldi r24,lo8(1)
	ldi r25,0
	ret
.L7:
	.loc 1 98 16 view .LVU47
	ldi r24,lo8(1)
	ldi r25,0
/* epilogue start */
	.loc 1 107 1 view .LVU48
	ret
	.cfi_endproc
.LFE6:
	.size	write_twi0_SerLCD, .-write_twi0_SerLCD
.global	init_twi0_LM75
	.type	init_twi0_LM75, @function
init_twi0_LM75:
.LFB7:
	.loc 1 110 1 is_stmt 1 view -0
	.cfi_startproc
/* prologue: function */
/* frame size = 0 */
/* stack size = 0 */
.L__stack_usage = 0
	.loc 1 115 4 view .LVU50
	.loc 1 115 15 is_stmt 0 view .LVU51
	ldi r30,0
	ldi r31,lo8(9)
	ldi r24,lo8(20)
	st Z,r24
	.loc 1 122 4 is_stmt 1 view .LVU52
	.loc 1 122 15 is_stmt 0 view .LVU53
	ldi r24,lo8(1)
	std Z+6,r24
	.loc 1 126 4 is_stmt 1 view .LVU54
	.loc 1 126 16 is_stmt 0 view .LVU55
	std Z+3,r24
	.loc 1 129 4 is_stmt 1 view .LVU56
	.loc 1 129 17 is_stmt 0 view .LVU57
	std Z+5,r24
/* epilogue start */
	.loc 1 130 1 view .LVU58
	ret
	.cfi_endproc
.LFE7:
	.size	init_twi0_LM75, .-init_twi0_LM75
.global	TWI0_LM75_read
	.type	TWI0_LM75_read, @function
TWI0_LM75_read:
.LVL4:
.LFB8:
	.loc 1 137 1 is_stmt 1 view -0
	.cfi_startproc
	.loc 1 137 1 is_stmt 0 view .LVU60
	push r28
	.cfi_def_cfa_offset 3
	.cfi_offset 28, -2
	push r29
	.cfi_def_cfa_offset 4
	.cfi_offset 29, -3
	rcall .
	.cfi_def_cfa_offset 6
	in r28,__SP_L__
	in r29,__SP_H__
	.cfi_def_cfa_register 28
/* prologue: function */
/* frame size = 2 */
/* stack size = 4 */
.L__stack_usage = 4
	.loc 1 139 4 is_stmt 1 view .LVU61
	.loc 1 139 31 is_stmt 0 view .LVU62
	lsl r24
.LVL5:
	.loc 1 139 31 view .LVU63
	ori r24,lo8(1)
	.loc 1 139 15 view .LVU64
	sts 2311,r24
	.loc 1 142 5 is_stmt 1 view .LVU65
.L10:
	.loc 1 142 12 discriminator 1 view .LVU66
	.loc 1 142 17 is_stmt 0 discriminator 1 view .LVU67
	lds r24,2309
	.loc 1 142 12 discriminator 1 view .LVU68
	cp r24, __zero_reg__
	brge .L10
	.loc 1 145 5 is_stmt 1 view .LVU69
	.loc 1 145 24 is_stmt 0 view .LVU70
	ldi r30,0
	ldi r31,lo8(9)
	ldd r25,Z+8
	.loc 1 145 19 view .LVU71
	sts temp_reg_high,r25
	.loc 1 148 4 is_stmt 1 view .LVU72
	.loc 1 148 16 is_stmt 0 view .LVU73
	ldi r24,lo8(2)
	std Z+4,r24
	.loc 1 151 5 is_stmt 1 view .LVU74
.L11:
	.loc 1 151 12 discriminator 1 view .LVU75
	.loc 1 151 17 is_stmt 0 discriminator 1 view .LVU76
	lds r24,2309
	.loc 1 151 12 discriminator 1 view .LVU77
	cp r24, __zero_reg__
	brge .L11
	.loc 1 154 5 is_stmt 1 view .LVU78
	.loc 1 154 23 is_stmt 0 view .LVU79
	ldi r30,0
	ldi r31,lo8(9)
	ldd r18,Z+8
	.loc 1 154 18 view .LVU80
	sts temp_reg_low,r18
	.loc 1 157 4 is_stmt 1 view .LVU81
	.loc 1 157 16 is_stmt 0 view .LVU82
	ldi r24,lo8(7)
	std Z+4,r24
	.loc 1 160 5 is_stmt 1 view .LVU83
.L12:
	.loc 1 160 33 discriminator 1 view .LVU84
	.loc 1 160 16 is_stmt 0 discriminator 1 view .LVU85
	lds r24,2309
	.loc 1 160 33 discriminator 1 view .LVU86
	andi r24,lo8(3)
	cpi r24,lo8(1)
	brne .L12
	.loc 1 163 5 is_stmt 1 view .LVU87
	.loc 1 163 80 is_stmt 0 view .LVU88
	andi r18,lo8(-128)
	.loc 1 163 64 view .LVU89
	mov r19,r25
	.loc 1 163 23 view .LVU90
	std Y+1,r18
	std Y+2,r19
	.loc 1 165 5 is_stmt 1 view .LVU91
	.loc 1 165 12 is_stmt 0 view .LVU92
	ldd r24,Y+1
	ldd r25,Y+2
/* epilogue start */
	.loc 1 166 1 view .LVU93
	pop __tmp_reg__
	pop __tmp_reg__
	pop r29
	pop r28
	ret
	.cfi_endproc
.LFE8:
	.size	TWI0_LM75_read, .-TWI0_LM75_read
.global	init_spi0_SerLCD
	.type	init_spi0_SerLCD, @function
init_spi0_SerLCD:
.LFB9:
	.loc 1 169 30 is_stmt 1 view -0
	.cfi_startproc
/* prologue: function */
/* frame size = 0 */
/* stack size = 0 */
.L__stack_usage = 0
	.loc 1 170 4 view .LVU95
	.loc 1 170 9 is_stmt 0 view .LVU96
	ldi r30,0
	ldi r31,lo8(4)
	ld r24,Z
	.loc 1 170 14 view .LVU97
	ori r24,lo8(16)
	st Z,r24
	.loc 1 171 4 is_stmt 1 view .LVU98
	.loc 1 171 9 is_stmt 0 view .LVU99
	ld r24,Z
	.loc 1 171 14 view .LVU100
	andi r24,lo8(-33)
	st Z,r24
	.loc 1 172 4 is_stmt 1 view .LVU101
	.loc 1 172 9 is_stmt 0 view .LVU102
	ld r24,Z
	.loc 1 172 14 view .LVU103
	ori r24,lo8(64)
	st Z,r24
	.loc 1 173 4 is_stmt 1 view .LVU104
	.loc 1 173 9 is_stmt 0 view .LVU105
	ld r24,Z
	.loc 1 173 14 view .LVU106
	ori r24,lo8(-128)
	st Z,r24
	.loc 1 176 4 is_stmt 1 view .LVU107
	.loc 1 176 9 is_stmt 0 view .LVU108
	ldd r24,Z+4
	.loc 1 176 14 view .LVU109
	ori r24,lo8(-128)
	std Z+4,r24
	.loc 1 178 4 is_stmt 1 view .LVU110
	.loc 1 178 15 is_stmt 0 view .LVU111
	ldi r30,lo8(64)
	ldi r31,lo8(9)
	ldi r24,lo8(4)
	std Z+1,r24
	.loc 1 179 4 is_stmt 1 view .LVU112
	.loc 1 179 15 is_stmt 0 view .LVU113
	ldi r24,lo8(37)
	st Z,r24
/* epilogue start */
	.loc 1 181 1 view .LVU114
	ret
	.cfi_endproc
.LFE9:
	.size	init_spi0_SerLCD, .-init_spi0_SerLCD
.global	write_spi0_SerLCD
	.type	write_spi0_SerLCD, @function
write_spi0_SerLCD:
.LVL6:
.LFB10:
	.loc 1 185 44 is_stmt 1 view -0
	.cfi_startproc
/* prologue: function */
/* frame size = 0 */
/* stack size = 0 */
.L__stack_usage = 0
	.loc 1 186 4 view .LVU116
	.loc 1 186 9 is_stmt 0 view .LVU117
	ldi r30,0
	ldi r31,lo8(4)
	ldd r25,Z+4
	.loc 1 186 14 view .LVU118
	andi r25,lo8(127)
	std Z+4,r25
	.loc 1 187 4 is_stmt 1 view .LVU119
	.loc 1 187 14 is_stmt 0 view .LVU120
	sts 2372,r24
	.loc 1 188 5 is_stmt 1 view .LVU121
.LVL7:
.L15:
	.loc 1 188 12 discriminator 1 view .LVU122
	.loc 1 188 17 is_stmt 0 discriminator 1 view .LVU123
	lds r24,2371
	.loc 1 188 12 discriminator 1 view .LVU124
	cp r24, __zero_reg__
	brge .L15
	.loc 1 189 4 is_stmt 1 view .LVU125
	.loc 1 189 9 is_stmt 0 view .LVU126
	ldi r30,0
	ldi r31,lo8(4)
	ldd r24,Z+4
	.loc 1 189 14 view .LVU127
	ori r24,lo8(-128)
	std Z+4,r24
.LVL8:
/* epilogue start */
	.loc 1 190 1 view .LVU128
	ret
	.cfi_endproc
.LFE10:
	.size	write_spi0_SerLCD, .-write_spi0_SerLCD
.global	update_twi0_SerLCD
	.type	update_twi0_SerLCD, @function
update_twi0_SerLCD:
.LFB11:
	.loc 1 192 30 is_stmt 1 view -0
	.cfi_startproc
	push r28
	.cfi_def_cfa_offset 3
	.cfi_offset 28, -2
/* prologue: function */
/* frame size = 0 */
/* stack size = 1 */
.L__stack_usage = 1
	.loc 1 194 5 view .LVU130
	ldi r22,lo8(124)
	ldi r24,lo8(114)
	call write_twi0_SerLCD
.LVL9:
	.loc 1 195 5 view .LVU131
	ldi r22,lo8(45)
	ldi r24,lo8(114)
	call write_twi0_SerLCD
.LVL10:
	.loc 1 198 5 view .LVU132
	ldi r22,lo8(-2)
	ldi r24,lo8(114)
	call write_twi0_SerLCD
.LVL11:
	.loc 1 199 5 view .LVU133
	ldi r22,lo8(-128)
	ldi r24,lo8(114)
	call write_twi0_SerLCD
.LVL12:
	.loc 1 200 5 view .LVU134
.LBB12:
	.loc 1 200 10 view .LVU135
	.loc 1 200 18 is_stmt 0 view .LVU136
	ldi r28,0
	.loc 1 200 5 view .LVU137
	rjmp .L17
.LVL13:
.L18:
	.loc 1 201 9 is_stmt 1 view .LVU138
	.loc 1 201 44 is_stmt 0 view .LVU139
	subi r28,lo8(-(1))
.LVL14:
	.loc 1 201 9 view .LVU140
	ldi r24,lo8(114)
	call write_twi0_SerLCD
.LVL15:
.L17:
	.loc 1 200 25 is_stmt 1 discriminator 1 view .LVU141
	.loc 1 200 34 is_stmt 0 discriminator 1 view .LVU142
	mov r30,r28
	ldi r31,0
	subi r30,lo8(-(dsp_buff1))
	sbci r31,hi8(-(dsp_buff1))
	ld r22,Z
	.loc 1 200 25 discriminator 1 view .LVU143
	cpse r22,__zero_reg__
	rjmp .L18
.LBE12:
	.loc 1 204 5 is_stmt 1 view .LVU144
	ldi r22,lo8(-2)
	ldi r24,lo8(114)
	call write_twi0_SerLCD
.LVL16:
	.loc 1 205 5 view .LVU145
	ldi r22,lo8(-64)
	ldi r24,lo8(114)
	call write_twi0_SerLCD
.LVL17:
	.loc 1 206 5 view .LVU146
.LBB13:
	.loc 1 206 10 view .LVU147
	.loc 1 206 18 is_stmt 0 view .LVU148
	ldi r28,0
.LVL18:
	.loc 1 206 5 view .LVU149
	rjmp .L19
.LVL19:
.L20:
	.loc 1 207 9 is_stmt 1 view .LVU150
	.loc 1 207 44 is_stmt 0 view .LVU151
	subi r28,lo8(-(1))
.LVL20:
	.loc 1 207 9 view .LVU152
	ldi r24,lo8(114)
	call write_twi0_SerLCD
.LVL21:
.L19:
	.loc 1 206 25 is_stmt 1 discriminator 1 view .LVU153
	.loc 1 206 34 is_stmt 0 discriminator 1 view .LVU154
	mov r30,r28
	ldi r31,0
	subi r30,lo8(-(dsp_buff2))
	sbci r31,hi8(-(dsp_buff2))
	ld r22,Z
	.loc 1 206 25 discriminator 1 view .LVU155
	cpse r22,__zero_reg__
	rjmp .L20
.LBE13:
	.loc 1 210 5 is_stmt 1 view .LVU156
	ldi r22,lo8(-2)
	ldi r24,lo8(114)
	call write_twi0_SerLCD
.LVL22:
	.loc 1 211 5 view .LVU157
	ldi r22,lo8(-108)
	ldi r24,lo8(114)
	call write_twi0_SerLCD
.LVL23:
	.loc 1 212 5 view .LVU158
.LBB14:
	.loc 1 212 10 view .LVU159
	.loc 1 212 18 is_stmt 0 view .LVU160
	ldi r28,0
.LVL24:
	.loc 1 212 5 view .LVU161
	rjmp .L21
.LVL25:
.L22:
	.loc 1 213 9 is_stmt 1 view .LVU162
	.loc 1 213 44 is_stmt 0 view .LVU163
	subi r28,lo8(-(1))
.LVL26:
	.loc 1 213 9 view .LVU164
	ldi r24,lo8(114)
	call write_twi0_SerLCD
.LVL27:
.L21:
	.loc 1 212 25 is_stmt 1 discriminator 1 view .LVU165
	.loc 1 212 34 is_stmt 0 discriminator 1 view .LVU166
	mov r30,r28
	ldi r31,0
	subi r30,lo8(-(dsp_buff3))
	sbci r31,hi8(-(dsp_buff3))
	ld r22,Z
	.loc 1 212 25 discriminator 1 view .LVU167
	cpse r22,__zero_reg__
	rjmp .L22
.LBE14:
	.loc 1 216 5 is_stmt 1 view .LVU168
	ldi r22,lo8(-2)
	ldi r24,lo8(114)
	call write_twi0_SerLCD
.LVL28:
	.loc 1 217 5 view .LVU169
	ldi r22,lo8(-44)
	ldi r24,lo8(114)
	call write_twi0_SerLCD
.LVL29:
	.loc 1 218 5 view .LVU170
.LBB15:
	.loc 1 218 10 view .LVU171
	.loc 1 218 18 is_stmt 0 view .LVU172
	ldi r28,0
.LVL30:
	.loc 1 218 5 view .LVU173
	rjmp .L23
.LVL31:
.L24:
	.loc 1 219 9 is_stmt 1 view .LVU174
	.loc 1 219 44 is_stmt 0 view .LVU175
	subi r28,lo8(-(1))
.LVL32:
	.loc 1 219 9 view .LVU176
	ldi r24,lo8(114)
	call write_twi0_SerLCD
.LVL33:
.L23:
	.loc 1 218 25 is_stmt 1 discriminator 1 view .LVU177
	.loc 1 218 34 is_stmt 0 discriminator 1 view .LVU178
	mov r30,r28
	ldi r31,0
	subi r30,lo8(-(dsp_buff4))
	sbci r31,hi8(-(dsp_buff4))
	ld r22,Z
	.loc 1 218 25 discriminator 1 view .LVU179
	cpse r22,__zero_reg__
	rjmp .L24
.LBE15:
	.loc 1 223 5 is_stmt 1 view .LVU180
.LVL34:
.LBB16:
.LBI16:
	.loc 2 237 1 view .LVU181
.LBB17:
	.loc 2 239 2 view .LVU182
	.loc 2 242 2 view .LVU183
	.loc 2 243 2 view .LVU184
	.loc 2 244 2 view .LVU185
	.loc 2 254 3 view .LVU186
	.loc 2 257 2 view .LVU187
	ldi r24,lo8(499)
	ldi r25,hi8(499)
1:	sbiw r24,1
	brne 1b
	rjmp .
	nop
.LVL35:
/* epilogue start */
	.loc 2 257 2 is_stmt 0 view .LVU188
.LBE17:
.LBE16:
	.loc 1 224 1 view .LVU189
	pop r28
.LVL36:
	.loc 1 224 1 view .LVU190
	ret
	.cfi_endproc
.LFE11:
	.size	update_twi0_SerLCD, .-update_twi0_SerLCD
.global	update_SerLCD
	.type	update_SerLCD, @function
update_SerLCD:
.LFB12:
	.loc 1 227 25 is_stmt 1 view -0
	.cfi_startproc
	push r28
	.cfi_def_cfa_offset 3
	.cfi_offset 28, -2
/* prologue: function */
/* frame size = 0 */
/* stack size = 1 */
.L__stack_usage = 1
	.loc 1 229 5 view .LVU192
	ldi r24,lo8(124)
	call write_spi0_SerLCD
.LVL37:
	.loc 1 230 5 view .LVU193
	ldi r24,lo8(45)
	call write_spi0_SerLCD
.LVL38:
	.loc 1 233 5 view .LVU194
	ldi r24,lo8(-2)
	call write_spi0_SerLCD
.LVL39:
	.loc 1 234 5 view .LVU195
	ldi r24,lo8(-128)
	call write_spi0_SerLCD
.LVL40:
	.loc 1 235 5 view .LVU196
.LBB18:
	.loc 1 235 10 view .LVU197
	.loc 1 235 18 is_stmt 0 view .LVU198
	ldi r28,0
	.loc 1 235 5 view .LVU199
	rjmp .L26
.LVL41:
.L27:
	.loc 1 236 9 is_stmt 1 view .LVU200
	.loc 1 236 38 is_stmt 0 view .LVU201
	subi r28,lo8(-(1))
.LVL42:
	.loc 1 236 9 view .LVU202
	call write_spi0_SerLCD
.LVL43:
.L26:
	.loc 1 235 25 is_stmt 1 discriminator 1 view .LVU203
	.loc 1 235 34 is_stmt 0 discriminator 1 view .LVU204
	mov r30,r28
	ldi r31,0
	subi r30,lo8(-(dsp_buff1))
	sbci r31,hi8(-(dsp_buff1))
	ld r24,Z
	.loc 1 235 25 discriminator 1 view .LVU205
	cpse r24,__zero_reg__
	rjmp .L27
.LBE18:
	.loc 1 239 5 is_stmt 1 view .LVU206
	ldi r24,lo8(-2)
	call write_spi0_SerLCD
.LVL44:
	.loc 1 240 5 view .LVU207
	ldi r24,lo8(-64)
	call write_spi0_SerLCD
.LVL45:
	.loc 1 241 5 view .LVU208
.LBB19:
	.loc 1 241 10 view .LVU209
	.loc 1 241 18 is_stmt 0 view .LVU210
	ldi r28,0
.LVL46:
	.loc 1 241 5 view .LVU211
	rjmp .L28
.LVL47:
.L29:
	.loc 1 242 9 is_stmt 1 view .LVU212
	.loc 1 242 38 is_stmt 0 view .LVU213
	subi r28,lo8(-(1))
.LVL48:
	.loc 1 242 9 view .LVU214
	call write_spi0_SerLCD
.LVL49:
.L28:
	.loc 1 241 25 is_stmt 1 discriminator 1 view .LVU215
	.loc 1 241 34 is_stmt 0 discriminator 1 view .LVU216
	mov r30,r28
	ldi r31,0
	subi r30,lo8(-(dsp_buff2))
	sbci r31,hi8(-(dsp_buff2))
	ld r24,Z
	.loc 1 241 25 discriminator 1 view .LVU217
	cpse r24,__zero_reg__
	rjmp .L29
.LBE19:
	.loc 1 245 5 is_stmt 1 view .LVU218
	ldi r24,lo8(-2)
	call write_spi0_SerLCD
.LVL50:
	.loc 1 246 5 view .LVU219
	ldi r24,lo8(-108)
	call write_spi0_SerLCD
.LVL51:
	.loc 1 247 5 view .LVU220
.LBB20:
	.loc 1 247 10 view .LVU221
	.loc 1 247 18 is_stmt 0 view .LVU222
	ldi r28,0
.LVL52:
	.loc 1 247 5 view .LVU223
	rjmp .L30
.LVL53:
.L31:
	.loc 1 248 9 is_stmt 1 view .LVU224
	.loc 1 248 38 is_stmt 0 view .LVU225
	subi r28,lo8(-(1))
.LVL54:
	.loc 1 248 9 view .LVU226
	call write_spi0_SerLCD
.LVL55:
.L30:
	.loc 1 247 25 is_stmt 1 discriminator 1 view .LVU227
	.loc 1 247 34 is_stmt 0 discriminator 1 view .LVU228
	mov r30,r28
	ldi r31,0
	subi r30,lo8(-(dsp_buff3))
	sbci r31,hi8(-(dsp_buff3))
	ld r24,Z
	.loc 1 247 25 discriminator 1 view .LVU229
	cpse r24,__zero_reg__
	rjmp .L31
.LBE20:
	.loc 1 251 5 is_stmt 1 view .LVU230
	ldi r24,lo8(-2)
	call write_spi0_SerLCD
.LVL56:
	.loc 1 252 5 view .LVU231
	ldi r24,lo8(-44)
	call write_spi0_SerLCD
.LVL57:
	.loc 1 253 5 view .LVU232
.LBB21:
	.loc 1 253 10 view .LVU233
	.loc 1 253 18 is_stmt 0 view .LVU234
	ldi r28,0
.LVL58:
	.loc 1 253 5 view .LVU235
	rjmp .L32
.LVL59:
.L33:
	.loc 1 254 9 is_stmt 1 view .LVU236
	.loc 1 254 38 is_stmt 0 view .LVU237
	subi r28,lo8(-(1))
.LVL60:
	.loc 1 254 9 view .LVU238
	call write_spi0_SerLCD
.LVL61:
.L32:
	.loc 1 253 25 is_stmt 1 discriminator 1 view .LVU239
	.loc 1 253 34 is_stmt 0 discriminator 1 view .LVU240
	mov r30,r28
	ldi r31,0
	subi r30,lo8(-(dsp_buff4))
	sbci r31,hi8(-(dsp_buff4))
	ld r24,Z
	.loc 1 253 25 discriminator 1 view .LVU241
	cpse r24,__zero_reg__
	rjmp .L33
/* epilogue start */
.LBE21:
	.loc 1 258 1 view .LVU242
	pop r28
.LVL62:
	.loc 1 258 1 view .LVU243
	ret
	.cfi_endproc
.LFE12:
	.size	update_SerLCD, .-update_SerLCD
	.section	.rodata.str1.1,"aMS",@progbits,1
.LC0:
	.string	"                    "
	.text
.global	clear_display_buffs
	.type	clear_display_buffs, @function
clear_display_buffs:
.LFB13:
	.loc 1 261 31 is_stmt 1 view -0
	.cfi_startproc
/* prologue: function */
/* frame size = 0 */
/* stack size = 0 */
.L__stack_usage = 0
	.loc 1 262 5 view .LVU245
	ldi r24,lo8(21)
	ldi r30,lo8(.LC0)
	ldi r31,hi8(.LC0)
	ldi r26,lo8(dsp_buff1)
	ldi r27,hi8(dsp_buff1)
	0:
	ld r0,Z+
	st X+,r0
	dec r24
	brne 0b
	.loc 1 263 5 view .LVU246
	ldi r24,lo8(21)
	ldi r30,lo8(.LC0)
	ldi r31,hi8(.LC0)
	ldi r26,lo8(dsp_buff2)
	ldi r27,hi8(dsp_buff2)
	0:
	ld r0,Z+
	st X+,r0
	dec r24
	brne 0b
	.loc 1 264 5 view .LVU247
	ldi r24,lo8(21)
	ldi r30,lo8(.LC0)
	ldi r31,hi8(.LC0)
	ldi r26,lo8(dsp_buff3)
	ldi r27,hi8(dsp_buff3)
	0:
	ld r0,Z+
	st X+,r0
	dec r24
	brne 0b
	.loc 1 265 5 view .LVU248
	ldi r24,lo8(21)
	ldi r30,lo8(.LC0)
	ldi r31,hi8(.LC0)
	ldi r26,lo8(dsp_buff4)
	ldi r27,hi8(dsp_buff4)
	0:
	ld r0,Z+
	st X+,r0
	dec r24
	brne 0b
/* epilogue start */
	.loc 1 266 1 is_stmt 0 view .LVU249
	ret
	.cfi_endproc
.LFE13:
	.size	clear_display_buffs, .-clear_display_buffs
	.section	.rodata.str1.1
.LC1:
	.string	"Human Readable LM75"
.LC2:
	.string	"%d.%d C"
.LC3:
	.string	"%d.%d F"
	.text
.global	main
	.type	main, @function
main:
.LFB14:
	.loc 1 271 1 is_stmt 1 view -0
	.cfi_startproc
	rcall .
	.cfi_def_cfa_offset 4
	in r28,__SP_L__
	in r29,__SP_H__
	.cfi_def_cfa_register 28
/* prologue: function */
/* frame size = 2 */
/* stack size = 2 */
.L__stack_usage = 2
	.loc 1 273 5 view .LVU251
	call init_twi0_SerLCD
.LVL63:
	.loc 1 276 5 view .LVU252
	call init_twi0_LM75
.LVL64:
	.loc 1 279 5 view .LVU253
	call clear_display_buffs
.LVL65:
	.loc 1 282 5 view .LVU254
	ldi r22,lo8(124)
	ldi r24,lo8(114)
	call write_twi0_SerLCD
.LVL66:
	.loc 1 283 5 view .LVU255
	ldi r22,lo8(45)
	ldi r24,lo8(114)
	call write_twi0_SerLCD
.LVL67:
	.loc 1 286 5 view .LVU256
	call update_twi0_SerLCD
.LVL68:
	rjmp .L40
.LVL69:
.L37:
.LBB22:
.LBB23:
	.loc 1 307 13 view .LVU257
	.loc 1 307 35 is_stmt 0 view .LVU258
	ldd r24,Y+1
	ldd r25,Y+2
	lsr r25
	ror r24
	.loc 1 307 23 view .LVU259
	std Y+1,r24
	std Y+2,r25
	.loc 1 308 13 is_stmt 1 view .LVU260
	.loc 1 308 53 is_stmt 0 view .LVU261
	ldd r24,Y+1
	ldd r25,Y+2
	andi r24,1
	clr r25
	.loc 1 308 41 view .LVU262
	neg r25
	neg r24
	sbc r25,__zero_reg__
	and r24,r22
	.loc 1 308 33 view .LVU263
	add r23,r24
.LVL70:
	.loc 1 309 13 is_stmt 1 view .LVU264
	.loc 1 309 19 is_stmt 0 view .LVU265
	lsl r22
.LVL71:
	.loc 1 304 33 is_stmt 1 discriminator 3 view .LVU266
	subi r20,-1
	sbci r21,-1
.LVL72:
.L36:
	.loc 1 304 27 discriminator 1 view .LVU267
	cpi r20,7
	cpc r21,__zero_reg__
	brlt .L37
.LBE23:
	.loc 1 313 9 view .LVU268
	.loc 1 313 31 is_stmt 0 view .LVU269
	ldd r24,Y+1
	ldd r25,Y+2
	lsr r25
	ror r24
	.loc 1 313 19 view .LVU270
	std Y+1,r24
	std Y+2,r25
	.loc 1 314 9 is_stmt 1 view .LVU271
	.loc 1 314 47 is_stmt 0 view .LVU272
	ldd r24,Y+1
	ldd r25,Y+2
	.loc 1 314 29 view .LVU273
	ror r24
	clr r24
	ror r24
	mov r14,r23
	sub r14,r24
.LVL73:
	.loc 1 316 9 is_stmt 1 view .LVU274
	ldi r24,lo8(20)
	ldi r30,lo8(.LC1)
	ldi r31,hi8(.LC1)
	ldi r26,lo8(dsp_buff1)
	ldi r27,hi8(dsp_buff1)
	0:
	ld r0,Z+
	st X+,r0
	dec r24
	brne 0b
	.loc 1 317 9 view .LVU275
	mov r18,r15
	ldi r19,0
	mov r20,r14
	mov __tmp_reg__,r14
	lsl r0
	sbc r21,r21
.LVL74:
	.loc 1 317 9 is_stmt 0 view .LVU276
	movw r24,r18
	lsl r24
	rol r25
	lsl r24
	rol r25
	add r24,r18
	adc r25,r19
	push r25
	push r24
	push r21
	push r14
	ldi r24,lo8(.LC2)
	ldi r25,hi8(.LC2)
	push r25
	push r24
	ldi r24,lo8(dsp_buff2)
	ldi r25,hi8(dsp_buff2)
	push r25
	push r24
	call sprintf
.LVL75:
	.loc 1 321 9 is_stmt 1 view .LVU277
	.loc 1 321 53 is_stmt 0 view .LVU278
	ldi r19,lo8(90)
	mul r15,r19
	movw r24,r0
	clr __zero_reg__
	.loc 1 321 17 view .LVU279
	mov r20,r14
	ldi r21,lo8(-76)
	mulsu r20,r21
	add r24,r0
	adc r25,r1
	clr __zero_reg__
.LVL76:
	.loc 1 322 9 is_stmt 1 view .LVU280
	.loc 1 322 17 is_stmt 0 view .LVU281
	movw r18,r24
	subi r18,-128
	sbci r19,-13
.LVL77:
	.loc 1 323 9 is_stmt 1 view .LVU282
	.loc 1 323 12 is_stmt 0 view .LVU283
	out __SP_L__,r28
	out __SP_H__,r29
	cp r14, __zero_reg__
	brlt .L38
.LBB24:
	.loc 1 325 13 is_stmt 1 view .LVU284
	.loc 1 325 21 is_stmt 0 view .LVU285
	ldi r30,lo8(100)
	ldi r31,0
	movw r22,r30
	call __divmodhi4
.LVL78:
	.loc 1 326 13 is_stmt 1 view .LVU286
	.loc 1 326 46 is_stmt 0 view .LVU287
	sub r18,r24
	sbc r19,r25
.LVL79:
	.loc 1 326 13 view .LVU288
	ldi r22,lo8(10)
	ldi r23,0
	call __divmodhi4
.LVL80:
	.loc 1 326 13 view .LVU289
	push r23
	push r22
	movw r24,r18
	movw r22,r30
	call __divmodhi4
	push r23
	push r22
	ldi r24,lo8(.LC3)
	ldi r25,hi8(.LC3)
	push r25
	push r24
	ldi r24,lo8(dsp_buff3)
	ldi r25,hi8(dsp_buff3)
	push r25
	push r24
	call sprintf
.LVL81:
	.loc 1 326 13 view .LVU290
.LBE24:
	out __SP_L__,r28
	out __SP_H__,r29
.LVL82:
.L39:
	.loc 1 333 9 is_stmt 1 view .LVU291
	call update_twi0_SerLCD
.LVL83:
.LBE22:
	.loc 1 288 10 view .LVU292
.L40:
	.loc 1 288 5 view .LVU293
.LBB28:
	.loc 1 292 9 view .LVU294
	.loc 1 294 9 view .LVU295
	.loc 1 294 39 is_stmt 0 view .LVU296
	ldi r24,lo8(72)
	call TWI0_LM75_read
.LVL84:
	mov r16,r24
	mov r17,r25
	.loc 1 294 27 discriminator 1 view .LVU297
	std Y+1,r16
	std Y+2,r17
	.loc 1 295 9 is_stmt 1 view .LVU298
.LVL85:
	.loc 1 298 9 view .LVU299
	.loc 1 298 31 is_stmt 0 view .LVU300
	ldd r24,Y+1
	ldd r25,Y+2
	lsl r24
	mov r24,r25
	rol r24
	sbc r25,r25
	neg r25
	.loc 1 298 19 view .LVU301
	std Y+1,r24
	std Y+2,r25
	.loc 1 301 9 is_stmt 1 view .LVU302
	.loc 1 301 28 is_stmt 0 view .LVU303
	ldd r24,Y+1
	ldd r25,Y+2
	.loc 1 301 14 view .LVU304
	mov r18,r24
	andi r18,lo8(1)
	mov r15,r18
.LVL86:
	.loc 1 303 9 is_stmt 1 view .LVU305
	.loc 1 304 9 view .LVU306
.LBB25:
	.loc 1 304 14 view .LVU307
	.loc 1 304 18 is_stmt 0 view .LVU308
	ldi r20,0
	ldi r21,0
.LBE25:
	.loc 1 303 17 view .LVU309
	ldi r22,lo8(1)
	.loc 1 292 16 view .LVU310
	ldi r23,0
.LBB26:
	.loc 1 304 9 view .LVU311
	rjmp .L36
.LVL87:
.L38:
	.loc 1 304 9 view .LVU312
.LBE26:
.LBB27:
	.loc 1 330 13 is_stmt 1 view .LVU313
	.loc 1 330 21 is_stmt 0 view .LVU314
	ldi r30,lo8(100)
	ldi r31,0
	movw r24,r18
.LVL88:
	.loc 1 330 21 view .LVU315
	movw r22,r30
	call __divmodhi4
.LVL89:
	.loc 1 331 13 is_stmt 1 view .LVU316
	.loc 1 331 47 is_stmt 0 view .LVU317
	movw r20,r24
	sub r20,r18
	sbc r21,r19
	movw r18,r20
.LVL90:
	.loc 1 331 13 view .LVU318
	ldi r22,lo8(10)
	ldi r23,0
	call __divmodhi4
.LVL91:
	.loc 1 331 13 view .LVU319
	push r23
	push r22
	movw r24,r18
	movw r22,r30
	call __divmodhi4
	push r23
	push r22
	ldi r24,lo8(.LC3)
	ldi r25,hi8(.LC3)
	push r25
	push r24
	ldi r24,lo8(dsp_buff3)
	ldi r25,hi8(dsp_buff3)
	push r25
	push r24
	call sprintf
.LVL92:
	.loc 1 331 13 view .LVU320
	out __SP_L__,r28
	out __SP_H__,r29
	rjmp .L39
.LBE27:
.LBE28:
	.cfi_endproc
.LFE14:
	.size	main, .-main
.global	temp_reg_low
	.section .bss
	.type	temp_reg_low, @object
	.size	temp_reg_low, 1
temp_reg_low:
	.zero	1
.global	temp_reg_high
	.type	temp_reg_high, @object
	.size	temp_reg_high, 1
temp_reg_high:
	.zero	1
.global	dsp_buff4
	.type	dsp_buff4, @object
	.size	dsp_buff4, 21
dsp_buff4:
	.zero	21
.global	dsp_buff3
	.type	dsp_buff3, @object
	.size	dsp_buff3, 21
dsp_buff3:
	.zero	21
.global	dsp_buff2
	.type	dsp_buff2, @object
	.size	dsp_buff2, 21
dsp_buff2:
	.zero	21
.global	dsp_buff1
	.type	dsp_buff1, @object
	.size	dsp_buff1, 21
dsp_buff1:
	.zero	21
	.text
.Letext0:
	.file 3 "/usr/avr/include/stdint.h"
	.file 4 "/usr/avr/include/avr/ioavr128db48.h"
	.file 5 "/usr/avr/include/stdio.h"